; Function Attrs: nounwind uwtable
define i32 @Sfm_TimCriticalPath(ptr noundef captures(none) initializes((84, 88)) %0, i32 noundef %1) local_unnamed_addr #0 {
  %3 = getelementptr inbounds nuw i8, ptr %0, i64 24
  %4 = load i32, ptr %3, align 8, !tbaa !44
  %5 = mul nsw i32 %4, %1
  %6 = sdiv i32 %5, 100
  %7 = getelementptr inbounds nuw i8, ptr %0, i64 80
  %8 = getelementptr inbounds nuw i8, ptr %0, i64 84
  store i32 0, ptr %8, align 4, !tbaa !23
  %9 = getelementptr inbounds nuw i8, ptr %0, i64 16
  %10 = load ptr, ptr %9, align 8, !tbaa !51
  %11 = getelementptr inbounds nuw i8, ptr %10, i64 232
  %12 = load ptr, ptr %11, align 8, !tbaa !52
  %.not.i = icmp eq ptr %12, null
  br i1 %.not.i, label %13, label %Abc_NtkIncrementTravId.exit

13:                                               ; preds = %2
  %14 = getelementptr inbounds nuw i8, ptr %10, i64 224
  %15 = getelementptr i8, ptr %10, i64 32
  %.val.i = load ptr, ptr %15, align 8, !tbaa !39
  %16 = getelementptr i8, ptr %.val.i, i64 4
  %.val.val.i = load i32, ptr %16, align 4, !tbaa !53
  %17 = add nsw i32 %.val.val.i, 500
  %18 = load i32, ptr %14, align 8, !tbaa !24
  %.not.i.i.i = icmp slt i32 %18, %17
  br i1 %.not.i.i.i, label %19, label %Vec_IntGrow.exit.i.i

19:                                               ; preds = %13
  %20 = sext i32 %17 to i64
  %21 = shl nsw i64 %20, 2
  %22 = tail call noalias ptr @malloc(i64 noundef %21) #15
  store ptr %22, ptr %11, align 8, !tbaa !3
  store i32 %17, ptr %14, align 8, !tbaa !24
  br label %Vec_IntGrow.exit.i.i

Vec_IntGrow.exit.i.i:                             ; preds = %19, %13
  %23 = phi ptr [ %22, %19 ], [ null, %13 ]
  %24 = icmp sgt i32 %.val.val.i, -500
  br i1 %24, label %.lr.ph.i.i, label %Vec_IntFill.exit.i

.lr.ph.i.i:                                       ; preds = %Vec_IntGrow.exit.i.i
  %wide.trip.count.i.i = zext nneg i32 %17 to i64
  %25 = shl nuw nsw i64 %wide.trip.count.i.i, 2
  tail call void @llvm.memset.p0.i64(ptr align 4 %23, i8 0, i64 %25, i1 false), !tbaa !16
  br label %Vec_IntFill.exit.i

Vec_IntFill.exit.i:                               ; preds = %.lr.ph.i.i, %Vec_IntGrow.exit.i.i
  %26 = getelementptr inbounds nuw i8, ptr %10, i64 228
  store i32 %17, ptr %26, align 4, !tbaa !23
  br label %Abc_NtkIncrementTravId.exit

Abc_NtkIncrementTravId.exit:                      ; preds = %2, %Vec_IntFill.exit.i
  %27 = getelementptr inbounds nuw i8, ptr %10, i64 216
  %28 = load i32, ptr %27, align 8, !tbaa !25
  %29 = add nsw i32 %28, 1
  store i32 %29, ptr %27, align 8, !tbaa !25
  %30 = getelementptr i8, ptr %10, i64 64
  %.val2532 = load ptr, ptr %30, align 8, !tbaa !54
  %31 = getelementptr i8, ptr %.val2532, i64 4
  %.val25.val33 = load i32, ptr %31, align 4, !tbaa !53
  %32 = icmp sgt i32 %.val25.val33, 0
  br i1 %32, label %.lr.ph, label %.critedge

.lr.ph:                                           ; preds = %Abc_NtkIncrementTravId.exit
  %33 = getelementptr i8, ptr %0, i64 40
  %34 = getelementptr i8, ptr %0, i64 56
  br label %35

35:                                               ; preds = %.lr.ph, %67
  %36 = phi ptr [ %10, %.lr.ph ], [ %68, %67 ]
  %indvars.iv = phi i64 [ 0, %.lr.ph ], [ %indvars.iv.next, %67 ]
  %.val2535 = phi ptr [ %.val2532, %.lr.ph ], [ %.val25, %67 ]
  %37 = getelementptr i8, ptr %.val2535, i64 8
  %.val26.val = load ptr, ptr %37, align 8, !tbaa !40
  %38 = getelementptr inbounds nuw ptr, ptr %.val26.val, i64 %indvars.iv
  %39 = load ptr, ptr %38, align 8, !tbaa !42
  %.val27 = load ptr, ptr %39, align 8, !tbaa !22
  %40 = getelementptr i8, ptr %39, i64 32
  %.val28 = load ptr, ptr %40, align 8, !tbaa !15
  %41 = getelementptr i8, ptr %.val27, i64 32
  %.val27.val = load ptr, ptr %41, align 8, !tbaa !39
  %.val28.val = load i32, ptr %.val28, align 4, !tbaa !16
  %42 = getelementptr i8, ptr %.val27.val, i64 8
  %.val27.val.val = load ptr, ptr %42, align 8, !tbaa !40
  %43 = sext i32 %.val28.val to i64
  %44 = getelementptr inbounds ptr, ptr %.val27.val.val, i64 %43
  %45 = load ptr, ptr %44, align 8, !tbaa !42
  %46 = getelementptr i8, ptr %45, i64 20
  %.val21 = load i32, ptr %46, align 4
  %47 = and i32 %.val21, 15
  switch i32 %47, label %48 [
    i32 5, label %67
    i32 2, label %67
  ]

48:                                               ; preds = %35
  %49 = getelementptr i8, ptr %45, i64 28
  %.val = load i32, ptr %49, align 4, !tbaa !14
  %50 = icmp eq i32 %.val, 0
  br i1 %50, label %67, label %51

51:                                               ; preds = %48
  %.val22 = load ptr, ptr %33, align 8, !tbaa !3
  %.val23 = load ptr, ptr %34, align 8, !tbaa !3
  %52 = getelementptr i8, ptr %45, i64 16
  %.val24 = load i32, ptr %52, align 8, !tbaa !10
  %53 = shl nsw i32 %.val24, 1
  %54 = sext i32 %53 to i64
  %55 = getelementptr inbounds i32, ptr %.val23, i64 %54
  %56 = getelementptr inbounds i32, ptr %.val22, i64 %54
  %57 = load i32, ptr %55, align 4, !tbaa !16
  %58 = load i32, ptr %56, align 4, !tbaa !16
  %59 = sub nsw i32 %57, %58
  %60 = getelementptr inbounds nuw i8, ptr %55, i64 4
  %61 = load i32, ptr %60, align 4, !tbaa !16
  %62 = getelementptr inbounds nuw i8, ptr %56, i64 4
  %63 = load i32, ptr %62, align 4, !tbaa !16
  %64 = sub nsw i32 %61, %63
  %65 = tail call noundef i32 @llvm.smin.i32(i32 %59, i32 %64)
  %.not20 = icmp sgt i32 %65, %6
  br i1 %.not20, label %67, label %66

66:                                               ; preds = %51
  tail call void @Sfm_TimCriticalPath_int(ptr noundef nonnull %0, ptr noundef nonnull %45, ptr noundef nonnull %7, i32 noundef %6)
  %.pre = load ptr, ptr %9, align 8, !tbaa !51
  br label %67

67:                                               ; preds = %35, %35, %51, %66, %48
  %68 = phi ptr [ %36, %35 ], [ %36, %35 ], [ %36, %51 ], [ %.pre, %66 ], [ %36, %48 ]
  %indvars.iv.next = add nuw nsw i64 %indvars.iv, 1
  %69 = getelementptr i8, ptr %68, i64 64
  %.val25 = load ptr, ptr %69, align 8, !tbaa !54
  %70 = getelementptr i8, ptr %.val25, i64 4
  %.val25.val = load i32, ptr %70, align 4, !tbaa !53
  %71 = sext i32 %.val25.val to i64
  %72 = icmp slt i64 %indvars.iv.next, %71
  br i1 %72, label %35, label %.critedge, !llvm.loop !55

.critedge:                                        ; preds = %67, %Abc_NtkIncrementTravId.exit
  %.val29 = load i32, ptr %8, align 4, !tbaa !23
  ret i32 %.val29
}